; ModuleID = '50/1803.c'
source_filename = "50/1803.c"
target datalayout = "e-m:e-p270:32:32-p271:32:32-p272:64:64-i64:64-f80:128-n8:16:32:64-S128"
target triple = "x86_64-pc-linux-gnu"

@.str = private unnamed_addr constant [3 x i8] c"%d\00", align 1
@.str.1 = private unnamed_addr constant [3 x i8] c"1\0A\00", align 1
@.str.2 = private unnamed_addr constant [3 x i8] c"2\0A\00", align 1
@.str.3 = private unnamed_addr constant [3 x i8] c"3\0A\00", align 1
@.str.4 = private unnamed_addr constant [3 x i8] c"4\0A\00", align 1
@.str.5 = private unnamed_addr constant [3 x i8] c"5\0A\00", align 1
@.str.6 = private unnamed_addr constant [3 x i8] c"6\0A\00", align 1
@.str.7 = private unnamed_addr constant [3 x i8] c"7\0A\00", align 1
@.str.8 = private unnamed_addr constant [3 x i8] c"8\0A\00", align 1
@.str.9 = private unnamed_addr constant [3 x i8] c"9\0A\00", align 1
@.str.10 = private unnamed_addr constant [4 x i8] c"10\0A\00", align 1
@.str.11 = private unnamed_addr constant [4 x i8] c"11\0A\00", align 1
@.str.12 = private unnamed_addr constant [4 x i8] c"12\0A\00", align 1

; Function Attrs: noinline nounwind uwtable
define dso_local i32 @main() #0 {
  %1 = alloca i32, align 4
  %2 = alloca i32, align 4
  %3 = alloca i32, align 4
  %4 = alloca i32, align 4
  %5 = alloca i32, align 4
  %6 = alloca i32, align 4
  store i32 0, i32* %1, align 4
  %7 = call i32 (i8*, ...) @__isoc99_scanf(i8* getelementptr inbounds ([3 x i8], [3 x i8]* @.str, i64 0, i64 0), i32* %2)
  store i32 1, i32* %3, align 4
  br label %8

8:                                                ; preds = %85, %0
  %9 = load i32, i32* %3, align 4
  %10 = icmp sle i32 %9, 365
  br i1 %10, label %11, label %88

11:                                               ; preds = %8
  %12 = load i32, i32* %3, align 4
  %13 = srem i32 %12, 7
  %14 = load i32, i32* %2, align 4
  %15 = add nsw i32 %13, %14
  %16 = icmp eq i32 %15, 6
  br i1 %16, label %23, label %17

17:                                               ; preds = %11
  %18 = load i32, i32* %3, align 4
  %19 = srem i32 %18, 7
  %20 = load i32, i32* %2, align 4
  %21 = add nsw i32 %19, %20
  %22 = icmp eq i32 %21, 13
  br i1 %22, label %23, label %84

23:                                               ; preds = %17, %11
  %24 = load i32, i32* %3, align 4
  %25 = icmp eq i32 %24, 13
  br i1 %25, label %26, label %28

26:                                               ; preds = %23
  %27 = call i32 (i8*, ...) @printf(i8* getelementptr inbounds ([3 x i8], [3 x i8]* @.str.1, i64 0, i64 0))
  br label %28

28:                                               ; preds = %26, %23
  %29 = load i32, i32* %3, align 4
  %30 = icmp eq i32 %29, 44
  br i1 %30, label %31, label %33

31:                                               ; preds = %28
  %32 = call i32 (i8*, ...) @printf(i8* getelementptr inbounds ([3 x i8], [3 x i8]* @.str.2, i64 0, i64 0))
  br label %33

33:                                               ; preds = %31, %28
  %34 = load i32, i32* %3, align 4
  %35 = icmp eq i32 %34, 72
  br i1 %35, label %36, label %38

36:                                               ; preds = %33
  %37 = call i32 (i8*, ...) @printf(i8* getelementptr inbounds ([3 x i8], [3 x i8]* @.str.3, i64 0, i64 0))
  br label %38

38:                                               ; preds = %36, %33
  %39 = load i32, i32* %3, align 4
  %40 = icmp eq i32 %39, 103
  br i1 %40, label %41, label %43

41:                                               ; preds = %38
  %42 = call i32 (i8*, ...) @printf(i8* getelementptr inbounds ([3 x i8], [3 x i8]* @.str.4, i64 0, i64 0))
  br label %43

43:                                               ; preds = %41, %38
  %44 = load i32, i32* %3, align 4
  %45 = icmp eq i32 %44, 133
  br i1 %45, label %46, label %48

46:                                               ; preds = %43
  %47 = call i32 (i8*, ...) @printf(i8* getelementptr inbounds ([3 x i8], [3 x i8]* @.str.5, i64 0, i64 0))
  br label %48

48:                                               ; preds = %46, %43
  %49 = load i32, i32* %3, align 4
  %50 = icmp eq i32 %49, 164
  br i1 %50, label %51, label %53

51:                                               ; preds = %48
  %52 = call i32 (i8*, ...) @printf(i8* getelementptr inbounds ([3 x i8], [3 x i8]* @.str.6, i64 0, i64 0))
  br label %53

53:                                               ; preds = %51, %48
  %54 = load i32, i32* %3, align 4
  %55 = icmp eq i32 %54, 194
  br i1 %55, label %56, label %58

56:                                               ; preds = %53
  %57 = call i32 (i8*, ...) @printf(i8* getelementptr inbounds ([3 x i8], [3 x i8]* @.str.7, i64 0, i64 0))
  br label %58

58:                                               ; preds = %56, %53
  %59 = load i32, i32* %3, align 4
  %60 = icmp eq i32 %59, 225
  br i1 %60, label %61, label %63

61:                                               ; preds = %58
  %62 = call i32 (i8*, ...) @printf(i8* getelementptr inbounds ([3 x i8], [3 x i8]* @.str.8, i64 0, i64 0))
  br label %63

63:                                               ; preds = %61, %58
  %64 = load i32, i32* %3, align 4
  %65 = icmp eq i32 %64, 256
  br i1 %65, label %66, label %68

66:                                               ; preds = %63
  %67 = call i32 (i8*, ...) @printf(i8* getelementptr inbounds ([3 x i8], [3 x i8]* @.str.9, i64 0, i64 0))
  br label %68

68:                                               ; preds = %66, %63
  %69 = load i32, i32* %3, align 4
  %70 = icmp eq i32 %69, 286
  br i1 %70, label %71, label %73

71:                                               ; preds = %68
  %72 = call i32 (i8*, ...) @printf(i8* getelementptr inbounds ([4 x i8], [4 x i8]* @.str.10, i64 0, i64 0))
  br label %73

73:                                               ; preds = %71, %68
  %74 = load i32, i32* %3, align 4
  %75 = icmp eq i32 %74, 317
  br i1 %75, label %76, label %78

76:                                               ; preds = %73
  %77 = call i32 (i8*, ...) @printf(i8* getelementptr inbounds ([4 x i8], [4 x i8]* @.str.11, i64 0, i64 0))
  br label %78

78:                                               ; preds = %76, %73
  %79 = load i32, i32* %3, align 4
  %80 = icmp eq i32 %79, 347
  br i1 %80, label %81, label %83

81:                                               ; preds = %78
  %82 = call i32 (i8*, ...) @printf(i8* getelementptr inbounds ([4 x i8], [4 x i8]* @.str.12, i64 0, i64 0))
  br label %83

83:                                               ; preds = %81, %78
  br label %84

84:                                               ; preds = %83, %17
  br label %85

85:                                               ; preds = %84
  %86 = load i32, i32* %3, align 4
  %87 = add nsw i32 %86, 1
  store i32 %87, i32* %3, align 4
  br label %8

88:                                               ; preds = %8
  ret i32 0
}

declare dso_local i32 @__isoc99_scanf(i8*, ...) #1

declare dso_local i32 @printf(i8*, ...) #1


!llvm.module.flags = !{!0}
!llvm.ident = !{!1}

!0 = !{i32 1, !"wchar_size", i32 4}
!1 = !{!"clang version 10.0.0-4ubuntu1 "}
