; ModuleID = 'source-C-CXX/49/1803.c'
source_filename = "source-C-CXX/49/1803.c"
target datalayout = "e-m:e-p270:32:32-p271:32:32-p272:64:64-i64:64-f80:128-n8:16:32:64-S128"
target triple = "x86_64-pc-linux-gnu"

@.str = private unnamed_addr constant [3 x i8] c"%d\00", align 1
@str = private unnamed_addr constant [3 x i8] c"12\00", align 1
@str.13 = private unnamed_addr constant [3 x i8] c"11\00", align 1
@str.14 = private unnamed_addr constant [3 x i8] c"10\00", align 1
@str.15 = private unnamed_addr constant [2 x i8] c"9\00", align 1
@str.16 = private unnamed_addr constant [2 x i8] c"8\00", align 1
@str.17 = private unnamed_addr constant [2 x i8] c"7\00", align 1
@str.18 = private unnamed_addr constant [2 x i8] c"6\00", align 1
@str.19 = private unnamed_addr constant [2 x i8] c"5\00", align 1
@str.20 = private unnamed_addr constant [2 x i8] c"4\00", align 1
@str.21 = private unnamed_addr constant [2 x i8] c"3\00", align 1
@str.22 = private unnamed_addr constant [2 x i8] c"2\00", align 1
@str.23 = private unnamed_addr constant [2 x i8] c"1\00", align 1

; Function Attrs: nofree nounwind sspstrong uwtable
define dso_local i32 @main() local_unnamed_addr #0 {
  %1 = alloca i32, align 4
  %2 = bitcast i32* %1 to i8*
  call void @llvm.lifetime.start.p0i8(i64 4, i8* nonnull %2) #4
  %3 = call i32 (i8*, ...) @__isoc99_scanf(i8* getelementptr inbounds ([3 x i8], [3 x i8]* @.str, i64 0, i64 0), i32* nonnull %1)
  br label %4

4:                                                ; preds = %0, %26
  %5 = phi i32 [ 1, %0 ], [ %27, %26 ]
  %6 = trunc i32 %5 to i16
  %7 = urem i16 %6, 7
  %8 = zext i16 %7 to i32
  %9 = load i32, i32* %1, align 4, !tbaa !5
  %10 = add nsw i32 %9, %8
  switch i32 %10, label %26 [
    i32 6, label %11
    i32 13, label %11
  ]

11:                                               ; preds = %4, %4
  switch i32 %5, label %26 [
    i32 13, label %23
    i32 44, label %12
    i32 72, label %13
    i32 103, label %14
    i32 133, label %15
    i32 164, label %16
    i32 194, label %17
    i32 225, label %18
    i32 256, label %19
    i32 286, label %20
    i32 317, label %21
    i32 347, label %22
  ]

12:                                               ; preds = %11
  br label %23

13:                                               ; preds = %11
  br label %23

14:                                               ; preds = %11
  br label %23

15:                                               ; preds = %11
  br label %23

16:                                               ; preds = %11
  br label %23

17:                                               ; preds = %11
  br label %23

18:                                               ; preds = %11
  br label %23

19:                                               ; preds = %11
  br label %23

20:                                               ; preds = %11
  br label %23

21:                                               ; preds = %11
  br label %23

22:                                               ; preds = %11
  br label %23

23:                                               ; preds = %11, %22, %12, %13, %14, %15, %16, %17, %18, %19, %20, %21
  %24 = phi i8* [ getelementptr inbounds ([3 x i8], [3 x i8]* @str.13, i64 0, i64 0), %21 ], [ getelementptr inbounds ([3 x i8], [3 x i8]* @str.14, i64 0, i64 0), %20 ], [ getelementptr inbounds ([2 x i8], [2 x i8]* @str.15, i64 0, i64 0), %19 ], [ getelementptr inbounds ([2 x i8], [2 x i8]* @str.16, i64 0, i64 0), %18 ], [ getelementptr inbounds ([2 x i8], [2 x i8]* @str.17, i64 0, i64 0), %17 ], [ getelementptr inbounds ([2 x i8], [2 x i8]* @str.18, i64 0, i64 0), %16 ], [ getelementptr inbounds ([2 x i8], [2 x i8]* @str.19, i64 0, i64 0), %15 ], [ getelementptr inbounds ([2 x i8], [2 x i8]* @str.20, i64 0, i64 0), %14 ], [ getelementptr inbounds ([2 x i8], [2 x i8]* @str.21, i64 0, i64 0), %13 ], [ getelementptr inbounds ([2 x i8], [2 x i8]* @str.22, i64 0, i64 0), %12 ], [ getelementptr inbounds ([3 x i8], [3 x i8]* @str, i64 0, i64 0), %22 ], [ getelementptr inbounds ([2 x i8], [2 x i8]* @str.23, i64 0, i64 0), %11 ]
  %25 = call i32 @puts(i8* nonnull dereferenceable(1) %24)
  br label %26

26:                                               ; preds = %23, %11, %4
  %27 = add nuw nsw i32 %5, 1
  %28 = icmp eq i32 %27, 366
  br i1 %28, label %29, label %4, !llvm.loop !9

29:                                               ; preds = %26
  call void @llvm.lifetime.end.p0i8(i64 4, i8* nonnull %2) #4
  ret i32 0
}

; Function Attrs: argmemonly mustprogress nofree nosync nounwind willreturn
declare void @llvm.lifetime.start.p0i8(i64 immarg, i8* nocapture) #1

; Function Attrs: nofree nounwind
declare noundef i32 @__isoc99_scanf(i8* nocapture noundef readonly, ...) local_unnamed_addr #2

; Function Attrs: argmemonly mustprogress nofree nosync nounwind willreturn
declare void @llvm.lifetime.end.p0i8(i64 immarg, i8* nocapture) #1

; Function Attrs: nofree nounwind
declare noundef i32 @puts(i8* nocapture noundef readonly) local_unnamed_addr #3


!llvm.module.flags = !{!0, !1, !2, !3}
!llvm.ident = !{!4}

!0 = !{i32 1, !"wchar_size", i32 4}
!1 = !{i32 7, !"PIC Level", i32 2}
!2 = !{i32 7, !"PIE Level", i32 2}
!3 = !{i32 7, !"uwtable", i32 1}
!4 = !{!"clang version 13.0.0"}
!5 = !{!6, !6, i64 0}
!6 = !{!"int", !7, i64 0}
!7 = !{!"omnipotent char", !8, i64 0}
!8 = !{!"Simple C/C++ TBAA"}
!9 = distinct !{!9, !10}
!10 = !{!"llvm.loop.mustprogress"}
